#include <math.h>
#include <stdio.h>
#include <stdlib.h>
#include <string.h>

int main() {
	int i,j,k,n;
	double a[1000],sum,aver;
	scanf("%d",&k);
	for (i=0;i<k;i++) {
		scanf("%d",&n);
		sum = 0.0;
		for (j=0;j<n;j++) {
			scanf("%lf",&a[j]);
			sum+=a[j];
		} 
		aver = sum/(double)n;
		sum = 0;
		for (j=0;j<n;j++) {
		   sum+=(a[j]-aver)*(a[j]-aver);
		} 
		aver = sqrt((sum)/(double)n);
		printf("%.5lf\n",aver);
	}

	return 0;
}